; Function Attrs: nounwind uwtable
define ptr @l_Array_foldlMUnsafe_fold___at_Lean_IR_formatParams___spec__2(ptr noundef readonly captures(none) %0, i64 noundef %1, i64 noundef %2, ptr noundef %3) local_unnamed_addr #0 {
  %.not35 = icmp eq i64 %1, %2
  br i1 %.not35, label %._crit_edge, label %.lr.ph

.lr.ph:                                           ; preds = %4
  %5 = getelementptr inbounds nuw i8, ptr %0, i64 24
  br label %6

6:                                                ; preds = %.lr.ph, %28
  %.02137 = phi i64 [ %1, %.lr.ph ], [ %32, %28 ]
  %.02336 = phi ptr [ %3, %.lr.ph ], [ %25, %28 ]
  %7 = getelementptr inbounds nuw [0 x ptr], ptr %5, i64 0, i64 %.02137
  %8 = load ptr, ptr %7, align 8, !tbaa !9
  %9 = ptrtoint ptr %8 to i64
  %10 = and i64 %9, 1
  %.not.i = icmp eq i64 %10, 0
  br i1 %.not.i, label %11, label %lean_array_uget.exit

11:                                               ; preds = %6
  %.val.i.i = load i32, ptr %8, align 4, !tbaa !4
  %12 = icmp sgt i32 %.val.i.i, 0
  br i1 %12, label %13, label %15, !prof !11

13:                                               ; preds = %11
  %14 = add nuw i32 %.val.i.i, 1
  store i32 %14, ptr %8, align 4, !tbaa !4
  br label %lean_array_uget.exit

15:                                               ; preds = %11
  %.not.i.i = icmp eq i32 %.val.i.i, 0
  br i1 %.not.i.i, label %lean_array_uget.exit, label %16

16:                                               ; preds = %15
  tail call void @lean_inc_ref_cold(ptr noundef nonnull %8) #4
  br label %lean_array_uget.exit

lean_array_uget.exit:                             ; preds = %6, %13, %15, %16
  %17 = load ptr, ptr @l_Array_foldlMUnsafe_fold___at_Lean_IR_formatArray___spec__1___rarg___closed__2, align 8, !tbaa !9
  tail call void @lean_inc_heartbeat() #4
  %18 = tail call noalias ptr @mi_malloc_small(i64 noundef 24) #4
  %19 = icmp eq ptr %18, null
  br i1 %19, label %20, label %lean_alloc_ctor.exit

20:                                               ; preds = %lean_array_uget.exit
  tail call void @lean_internal_panic_out_of_memory() #5
  unreachable

lean_alloc_ctor.exit:                             ; preds = %lean_array_uget.exit
  %21 = getelementptr inbounds nuw i8, ptr %18, i64 4
  store i32 1, ptr %18, align 4, !tbaa !4
  store i32 84017176, ptr %21, align 4
  %22 = getelementptr inbounds nuw i8, ptr %18, i64 8
  store ptr %.02336, ptr %22, align 8, !tbaa !9
  %23 = getelementptr inbounds nuw i8, ptr %18, i64 16
  store ptr %17, ptr %23, align 8, !tbaa !9
  %24 = tail call ptr @l___private_Lean_Compiler_IR_Format_0__Lean_IR_formatParam(ptr noundef %8)
  tail call void @lean_inc_heartbeat() #4
  %25 = tail call noalias ptr @mi_malloc_small(i64 noundef 24) #4
  %26 = icmp eq ptr %25, null
  br i1 %26, label %27, label %28

27:                                               ; preds = %lean_alloc_ctor.exit
  tail call void @lean_internal_panic_out_of_memory() #5
  unreachable

28:                                               ; preds = %lean_alloc_ctor.exit
  %29 = getelementptr inbounds nuw i8, ptr %25, i64 4
  store i32 1, ptr %25, align 4, !tbaa !4
  store i32 84017176, ptr %29, align 4
  %30 = getelementptr inbounds nuw i8, ptr %25, i64 8
  store ptr %18, ptr %30, align 8, !tbaa !9
  %31 = getelementptr inbounds nuw i8, ptr %25, i64 16
  store ptr %24, ptr %31, align 8, !tbaa !9
  %32 = add i64 %.02137, 1
  %.not = icmp eq i64 %32, %2
  br i1 %.not, label %._crit_edge, label %6

._crit_edge:                                      ; preds = %28, %4
  %.023.lcssa = phi ptr [ %3, %4 ], [ %25, %28 ]
  ret ptr %.023.lcssa
}